; Function Attrs: nounwind uwtable
define dso_local range(i32 0, 2) i32 @XML_SetEncoding(ptr noundef %0, ptr noundef readonly %1) local_unnamed_addr #0 {
  %3 = icmp eq ptr %0, null
  br i1 %3, label %21, label %4

4:                                                ; preds = %2
  %5 = getelementptr inbounds nuw i8, ptr %0, i64 896
  %6 = load i32, ptr %5, align 8, !tbaa !79
  switch i32 %6, label %7 [
    i32 1, label %21
    i32 3, label %21
  ]

7:                                                ; preds = %4
  %8 = getelementptr inbounds nuw i8, ptr %0, i64 40
  %9 = load ptr, ptr %8, align 8, !tbaa !34
  %10 = getelementptr inbounds nuw i8, ptr %0, i64 456
  %11 = load ptr, ptr %10, align 8, !tbaa !60
  tail call void %9(ptr noundef %11) #23
  %12 = icmp eq ptr %1, null
  br i1 %12, label %.sink.split, label %.preheader

.preheader:                                       ; preds = %7, %.preheader
  %.011.i = phi i64 [ %15, %.preheader ], [ 0, %7 ]
  %13 = getelementptr inbounds nuw i8, ptr %1, i64 %.011.i
  %14 = load i8, ptr %13, align 1, !tbaa !4
  %.not.i = icmp eq i8 %14, 0
  %15 = add i64 %.011.i, 1
  br i1 %.not.i, label %16, label %.preheader, !llvm.loop !62

16:                                               ; preds = %.preheader
  %17 = getelementptr inbounds nuw i8, ptr %0, i64 24
  %18 = load ptr, ptr %17, align 8, !tbaa !7
  %19 = tail call ptr %18(i64 noundef %15) #23
  %20 = icmp eq ptr %19, null
  br i1 %20, label %.sink.split, label %copyString.exit

copyString.exit:                                  ; preds = %16
  tail call void @llvm.memcpy.p0.p0.i64(ptr nonnull align 1 %19, ptr nonnull readonly align 1 %1, i64 %15, i1 false)
  br label %.sink.split

.sink.split:                                      ; preds = %16, %7, %copyString.exit
  %.sink = phi ptr [ %19, %copyString.exit ], [ null, %7 ], [ null, %16 ]
  %.0.ph = phi i32 [ 1, %copyString.exit ], [ 1, %7 ], [ 0, %16 ]
  store ptr %.sink, ptr %10, align 8, !tbaa !60
  br label %21

21:                                               ; preds = %.sink.split, %4, %4, %2
  %.0 = phi i32 [ 0, %2 ], [ 0, %4 ], [ 0, %4 ], [ %.0.ph, %.sink.split ]
  ret i32 %.0
}